; Function Attrs: nounwind uwtable
define ptr @l_Lean_Meta_Grind_Arith_Cutsat_propagateDvd___lambda__1___boxed(ptr noundef %0, ptr noundef %1, ptr noundef %2, ptr noundef %3, ptr noundef %4, ptr noundef %5, ptr noundef %6, ptr noundef %7, ptr noundef %8, ptr noundef %9, ptr noundef %10) local_unnamed_addr #1 {
  %12 = load ptr, ptr @l_Lean_Meta_Grind_Arith_Cutsat_propagateDvd___lambda__1___closed__1, align 8, !tbaa !6
  %13 = tail call zeroext i8 @l_Lean_Expr_isConstOf(ptr noundef %1, ptr noundef %12) #5
  %14 = icmp eq i8 %13, 0
  br i1 %14, label %15, label %17

15:                                               ; preds = %11
  %16 = tail call ptr @l_Lean_Meta_Grind_Arith_Cutsat_propagateIntDvd(ptr noundef %0, ptr noundef %2, ptr noundef %3, ptr noundef %4, ptr noundef %5, ptr noundef %6, ptr noundef %7, ptr noundef %8, ptr noundef %9, ptr noundef %10)
  br label %l_Lean_Meta_Grind_Arith_Cutsat_propagateDvd___lambda__1.exit

17:                                               ; preds = %11
  %18 = tail call ptr @l_Lean_Meta_Grind_Arith_Cutsat_propagateNatDvd(ptr noundef %0, ptr noundef %2, ptr noundef %3, ptr noundef %4, ptr noundef %5, ptr noundef %6, ptr noundef %7, ptr noundef %8, ptr noundef %9, ptr noundef %10)
  br label %l_Lean_Meta_Grind_Arith_Cutsat_propagateDvd___lambda__1.exit

l_Lean_Meta_Grind_Arith_Cutsat_propagateDvd___lambda__1.exit: ; preds = %15, %17
  %.0.i = phi ptr [ %16, %15 ], [ %18, %17 ]
  %19 = ptrtoint ptr %1 to i64
  %20 = and i64 %19, 1
  %.not = icmp eq i64 %20, 0
  br i1 %.not, label %21, label %lean_dec.exit

21:                                               ; preds = %l_Lean_Meta_Grind_Arith_Cutsat_propagateDvd___lambda__1.exit
  %22 = load i32, ptr %1, align 4, !tbaa !10
  %23 = icmp sgt i32 %22, 1
  br i1 %23, label %24, label %26, !prof !5

24:                                               ; preds = %21
  %25 = add nsw i32 %22, -1
  store i32 %25, ptr %1, align 4, !tbaa !10
  br label %lean_dec.exit

26:                                               ; preds = %21
  %.not.i = icmp eq i32 %22, 0
  br i1 %.not.i, label %lean_dec.exit, label %27

27:                                               ; preds = %26
  tail call void @lean_dec_ref_cold(ptr noundef nonnull %1) #5
  br label %lean_dec.exit

lean_dec.exit:                                    ; preds = %27, %26, %24, %l_Lean_Meta_Grind_Arith_Cutsat_propagateDvd___lambda__1.exit
  ret ptr %.0.i
}